target datalayout = "e-m:e-p270:32:32-p271:32:32-p272:64:64-i64:64-i128:128-f80:128-n8:16:32:64-S128"
target triple = "x86_64-pc-linux-gnu"

; Function Attrs: nounwind uwtable
define i32 @rsetnull(i32 noundef %0, ptr noundef %1) #0 {
  %3 = alloca i32, align 4
  %4 = alloca ptr, align 8
  store i32 %0, ptr %3, align 4
  store ptr %1, ptr %4, align 8
  %5 = load i32, ptr %3, align 4
  %6 = load ptr, ptr %4, align 8
  call void @ECPGset_noind_null(i32 noundef %5, ptr noundef %6)
  ret i32 0
}

; Function Attrs: nounwind uwtable
define i32 @risnull(i32 noundef %0, ptr noundef %1) #0 {
  %3 = alloca i32, align 4
  %4 = alloca ptr, align 8
  store i32 %0, ptr %3, align 4
  store ptr %1, ptr %4, align 8
  %5 = load i32, ptr %3, align 4
  %6 = load ptr, ptr %4, align 8
  %7 = call zeroext i1 @ECPGis_noind_null(i32 noundef %5, ptr noundef %6)
  %8 = zext i1 %7 to i32
  ret i32 %8
}

; Function Attrs: nounwind uwtable
define internal i32 @deccall3(ptr noundef %0, ptr noundef %1, ptr noundef %2, ptr noundef %3) #0 {
  %5 = alloca i32, align 4
  %6 = alloca ptr, align 8
  %7 = alloca ptr, align 8
  %8 = alloca ptr, align 8
  %9 = alloca ptr, align 8
  %10 = alloca ptr, align 8
  %11 = alloca ptr, align 8
  %12 = alloca ptr, align 8
  %13 = alloca i32, align 4
  %14 = alloca i32, align 4
  store ptr %0, ptr %6, align 8
  store ptr %1, ptr %7, align 8
  store ptr %2, ptr %8, align 8
  store ptr %3, ptr %9, align 8
  call void @llvm.lifetime.start.p0(i64 8, ptr %10) #9
  call void @llvm.lifetime.start.p0(i64 8, ptr %11) #9
  call void @llvm.lifetime.start.p0(i64 8, ptr %12) #9
  call void @llvm.lifetime.start.p0(i64 4, ptr %13) #9
  %15 = load ptr, ptr %6, align 8
  %16 = call i32 @risnull(i32 noundef 17, ptr noundef %15)
  %17 = icmp ne i32 %16, 0
  br i1 %17, label %22, label %18

18:                                               ; preds = %4
  %19 = load ptr, ptr %7, align 8
  %20 = call i32 @risnull(i32 noundef 17, ptr noundef %19)
  %21 = icmp ne i32 %20, 0
  br i1 %21, label %22, label %23

22:                                               ; preds = %18, %4
  store i32 0, ptr %5, align 4
  store i32 1, ptr %14, align 4
  br label %75

23:                                               ; preds = %18
  %24 = call ptr @PGTYPESnumeric_new()
  store ptr %24, ptr %10, align 8
  %25 = icmp eq ptr %24, null
  br i1 %25, label %26, label %27

26:                                               ; preds = %23
  store i32 -1211, ptr %5, align 4
  store i32 1, ptr %14, align 4
  br label %75

27:                                               ; preds = %23
  %28 = call ptr @PGTYPESnumeric_new()
  store ptr %28, ptr %11, align 8
  %29 = icmp eq ptr %28, null
  br i1 %29, label %30, label %32

30:                                               ; preds = %27
  %31 = load ptr, ptr %10, align 8
  call void @PGTYPESnumeric_free(ptr noundef %31)
  store i32 -1211, ptr %5, align 4
  store i32 1, ptr %14, align 4
  br label %75

32:                                               ; preds = %27
  %33 = call ptr @PGTYPESnumeric_new()
  store ptr %33, ptr %12, align 8
  %34 = icmp eq ptr %33, null
  br i1 %34, label %35, label %38

35:                                               ; preds = %32
  %36 = load ptr, ptr %10, align 8
  call void @PGTYPESnumeric_free(ptr noundef %36)
  %37 = load ptr, ptr %11, align 8
  call void @PGTYPESnumeric_free(ptr noundef %37)
  store i32 -1211, ptr %5, align 4
  store i32 1, ptr %14, align 4
  br label %75

38:                                               ; preds = %32
  %39 = load ptr, ptr %6, align 8
  %40 = load ptr, ptr %10, align 8
  %41 = call i32 @PGTYPESnumeric_from_decimal(ptr noundef %39, ptr noundef %40)
  %42 = icmp ne i32 %41, 0
  br i1 %42, label %43, label %47

43:                                               ; preds = %38
  %44 = load ptr, ptr %10, align 8
  call void @PGTYPESnumeric_free(ptr noundef %44)
  %45 = load ptr, ptr %11, align 8
  call void @PGTYPESnumeric_free(ptr noundef %45)
  %46 = load ptr, ptr %12, align 8
  call void @PGTYPESnumeric_free(ptr noundef %46)
  store i32 -1211, ptr %5, align 4
  store i32 1, ptr %14, align 4
  br label %75

47:                                               ; preds = %38
  %48 = load ptr, ptr %7, align 8
  %49 = load ptr, ptr %11, align 8
  %50 = call i32 @PGTYPESnumeric_from_decimal(ptr noundef %48, ptr noundef %49)
  %51 = icmp ne i32 %50, 0
  br i1 %51, label %52, label %56

52:                                               ; preds = %47
  %53 = load ptr, ptr %10, align 8
  call void @PGTYPESnumeric_free(ptr noundef %53)
  %54 = load ptr, ptr %11, align 8
  call void @PGTYPESnumeric_free(ptr noundef %54)
  %55 = load ptr, ptr %12, align 8
  call void @PGTYPESnumeric_free(ptr noundef %55)
  store i32 -1211, ptr %5, align 4
  store i32 1, ptr %14, align 4
  br label %75

56:                                               ; preds = %47
  %57 = load ptr, ptr %9, align 8
  %58 = load ptr, ptr %10, align 8
  %59 = load ptr, ptr %11, align 8
  %60 = load ptr, ptr %12, align 8
  %61 = call i32 %57(ptr noundef %58, ptr noundef %59, ptr noundef %60)
  store i32 %61, ptr %13, align 4
  %62 = load i32, ptr %13, align 4
  %63 = icmp eq i32 %62, 0
  br i1 %63, label %64, label %70

64:                                               ; preds = %56
  %65 = load ptr, ptr %8, align 8
  %66 = call i32 @rsetnull(i32 noundef 17, ptr noundef %65)
  %67 = load ptr, ptr %12, align 8
  %68 = load ptr, ptr %8, align 8
  %69 = call i32 @PGTYPESnumeric_to_decimal(ptr noundef %67, ptr noundef %68)
  br label %70

70:                                               ; preds = %64, %56
  %71 = load ptr, ptr %12, align 8
  call void @PGTYPESnumeric_free(ptr noundef %71)
  %72 = load ptr, ptr %10, align 8
  call void @PGTYPESnumeric_free(ptr noundef %72)
  %73 = load ptr, ptr %11, align 8
  call void @PGTYPESnumeric_free(ptr noundef %73)
  %74 = load i32, ptr %13, align 4
  store i32 %74, ptr %5, align 4
  store i32 1, ptr %14, align 4
  br label %75

75:                                               ; preds = %70, %52, %43, %35, %30, %26, %22
  call void @llvm.lifetime.end.p0(i64 4, ptr %13) #9
  call void @llvm.lifetime.end.p0(i64 8, ptr %12) #9
  call void @llvm.lifetime.end.p0(i64 8, ptr %11) #9
  call void @llvm.lifetime.end.p0(i64 8, ptr %10) #9
  %76 = load i32, ptr %5, align 4
  ret i32 %76
}