; Function Attrs: nounwind uwtable
define internal fastcc i32 @deccall3(ptr noundef %0, ptr noundef %1, ptr noundef %2, ptr noundef readonly captures(none) %3) unnamed_addr #0 {
  %5 = tail call zeroext i1 @ECPGis_noind_null(i32 noundef 17, ptr noundef %0) #16
  br i1 %5, label %26, label %6

6:                                                ; preds = %4
  %7 = tail call zeroext i1 @ECPGis_noind_null(i32 noundef 17, ptr noundef %1) #16
  br i1 %7, label %26, label %8

8:                                                ; preds = %6
  %9 = tail call ptr @PGTYPESnumeric_new() #16
  %10 = icmp eq ptr %9, null
  br i1 %10, label %26, label %11

11:                                               ; preds = %8
  %12 = tail call ptr @PGTYPESnumeric_new() #16
  %13 = icmp eq ptr %12, null
  br i1 %13, label %.sink.split, label %14

14:                                               ; preds = %11
  %15 = tail call ptr @PGTYPESnumeric_new() #16
  %16 = icmp eq ptr %15, null
  br i1 %16, label %.sink.split.sink.split, label %17

17:                                               ; preds = %14
  %18 = tail call i32 @PGTYPESnumeric_from_decimal(ptr noundef %0, ptr noundef nonnull %9) #16
  %.not31 = icmp eq i32 %18, 0
  br i1 %.not31, label %19, label %.sink.split.sink.split.sink.split

19:                                               ; preds = %17
  %20 = tail call i32 @PGTYPESnumeric_from_decimal(ptr noundef %1, ptr noundef nonnull %12) #16
  %.not32 = icmp eq i32 %20, 0
  br i1 %.not32, label %21, label %.sink.split.sink.split.sink.split

21:                                               ; preds = %19
  %22 = tail call i32 %3(ptr noundef nonnull %9, ptr noundef nonnull %12, ptr noundef nonnull %15) #16, !callees !3
  %23 = icmp eq i32 %22, 0
  br i1 %23, label %24, label %.sink.split.sink.split.sink.split

24:                                               ; preds = %21
  tail call void @ECPGset_noind_null(i32 noundef 17, ptr noundef %2) #16
  %25 = tail call i32 @PGTYPESnumeric_to_decimal(ptr noundef nonnull %15, ptr noundef %2) #16
  br label %.sink.split.sink.split.sink.split

.sink.split.sink.split.sink.split:                ; preds = %21, %24, %19, %17
  %.sink34 = phi ptr [ %9, %17 ], [ %9, %19 ], [ %15, %24 ], [ %15, %21 ]
  %.sink33.ph = phi ptr [ %12, %17 ], [ %12, %19 ], [ %9, %24 ], [ %9, %21 ]
  %.sink.ph.ph = phi ptr [ %15, %17 ], [ %15, %19 ], [ %12, %24 ], [ %12, %21 ]
  %.0.ph.ph.ph = phi i32 [ -1211, %17 ], [ -1211, %19 ], [ %22, %24 ], [ %22, %21 ]
  tail call void @PGTYPESnumeric_free(ptr noundef nonnull %.sink34) #16
  br label %.sink.split.sink.split

.sink.split.sink.split:                           ; preds = %.sink.split.sink.split.sink.split, %14
  %.sink33 = phi ptr [ %9, %14 ], [ %.sink33.ph, %.sink.split.sink.split.sink.split ]
  %.sink.ph = phi ptr [ %12, %14 ], [ %.sink.ph.ph, %.sink.split.sink.split.sink.split ]
  %.0.ph.ph = phi i32 [ -1211, %14 ], [ %.0.ph.ph.ph, %.sink.split.sink.split.sink.split ]
  tail call void @PGTYPESnumeric_free(ptr noundef nonnull %.sink33) #16
  br label %.sink.split

.sink.split:                                      ; preds = %.sink.split.sink.split, %11
  %.sink = phi ptr [ %9, %11 ], [ %.sink.ph, %.sink.split.sink.split ]
  %.0.ph = phi i32 [ -1211, %11 ], [ %.0.ph.ph, %.sink.split.sink.split ]
  tail call void @PGTYPESnumeric_free(ptr noundef nonnull %.sink) #16
  br label %26

26:                                               ; preds = %.sink.split, %8, %4, %6
  %.0 = phi i32 [ 0, %6 ], [ 0, %4 ], [ -1211, %8 ], [ %.0.ph, %.sink.split ]
  ret i32 %.0
}